target datalayout = "e-m:e-p270:32:32-p271:32:32-p272:64:64-i64:64-i128:128-f80:128-n8:16:32:64-S128"
target triple = "x86_64-pc-linux-gnu"

%struct._asn1_ctx_t = type { i32, i32, i8, ptr, ptr, ptr, ptr, ptr, %struct.anon, %struct.anon.2, %struct.anon.3, ptr }
%struct.anon = type { i32, i8, i8, i8, ptr, ptr, i32, i32, ptr, ptr, ptr, %union.anon }
%union.anon = type { %struct.anon.0 }
%struct.anon.0 = type { ptr }
%struct.anon.2 = type { ptr, ptr, ptr }
%struct.anon.3 = type { i32, i8, ptr, i32, i32, ptr, ptr, ptr, %union.anon.4 }
%union.anon.4 = type { %struct.anon.5 }
%struct.anon.5 = type { ptr }
%struct._gssapi_oid_value = type { ptr, i32, ptr, ptr, ptr }

@hf_spnego_wraptoken = internal global i32 0, align 4
@ett_spnego_wraptoken = internal global i32 0, align 4
@MechType_oid = internal global ptr null, align 8

; Function Attrs: nounwind uwtable
define internal i32 @dissect_spnego_InnerContextToken(i1 noundef zeroext %0, ptr noundef %1, i32 noundef %2, ptr noundef %3, ptr noundef %4, i32 noundef %5) #0 {
  %7 = alloca i8, align 1
  %8 = alloca ptr, align 8
  %9 = alloca i32, align 4
  %10 = alloca ptr, align 8
  %11 = alloca ptr, align 8
  %12 = alloca i32, align 4
  %13 = alloca ptr, align 8
  %14 = alloca ptr, align 8
  %15 = alloca ptr, align 8
  %16 = alloca ptr, align 8
  %17 = alloca i32, align 4
  %18 = zext i1 %0 to i8
  store i8 %18, ptr %7, align 1
  store ptr %1, ptr %8, align 8
  store i32 %2, ptr %9, align 4
  store ptr %3, ptr %10, align 8
  store ptr %4, ptr %11, align 8
  store i32 %5, ptr %12, align 4
  %19 = load ptr, ptr @MechType_oid, align 8
  %20 = call ptr @gssapi_lookup_oid_str(ptr noundef %19)
  store ptr %20, ptr %13, align 8
  %21 = load ptr, ptr %11, align 8
  %22 = load i32, ptr @hf_spnego_wraptoken, align 4
  %23 = load ptr, ptr %8, align 8
  %24 = load i32, ptr %9, align 4
  %25 = call ptr @proto_tree_add_item(ptr noundef %21, i32 noundef %22, ptr noundef %23, i32 noundef %24, i32 noundef -1, i32 noundef 0)
  store ptr %25, ptr %14, align 8
  %26 = load ptr, ptr %14, align 8
  %27 = load i32, ptr @ett_spnego_wraptoken, align 4
  %28 = call ptr @proto_item_add_subtree(ptr noundef %26, i32 noundef %27)
  store ptr %28, ptr %15, align 8
  %29 = load ptr, ptr %8, align 8
  %30 = load i32, ptr %9, align 4
  %31 = call ptr @tvb_new_subset_remaining(ptr noundef %29, i32 noundef %30)
  store ptr %31, ptr %16, align 8
  %32 = load ptr, ptr %13, align 8
  %33 = icmp ne ptr %32, null
  br i1 %33, label %34, label %59

34:                                               ; preds = %6
  %35 = load ptr, ptr %13, align 8
  %36 = getelementptr inbounds %struct._gssapi_oid_value, ptr %35, i32 0, i32 3
  %37 = load ptr, ptr %36, align 8
  %38 = icmp ne ptr %37, null
  br i1 %38, label %39, label %59

39:                                               ; preds = %34
  %40 = load ptr, ptr %13, align 8
  %41 = getelementptr inbounds %struct._gssapi_oid_value, ptr %40, i32 0, i32 3
  %42 = load ptr, ptr %41, align 8
  %43 = load ptr, ptr %16, align 8
  %44 = load ptr, ptr %10, align 8
  %45 = getelementptr inbounds %struct._asn1_ctx_t, ptr %44, i32 0, i32 3
  %46 = load ptr, ptr %45, align 8
  %47 = load ptr, ptr %15, align 8
  %48 = call i32 @call_dissector(ptr noundef %42, ptr noundef %43, ptr noundef %46, ptr noundef %47)
  store i32 %48, ptr %17, align 4
  %49 = load i32, ptr %17, align 4
  %50 = icmp eq i32 %49, 0
  br i1 %50, label %51, label %54

51:                                               ; preds = %39
  %52 = load ptr, ptr %8, align 8
  %53 = call i32 @tvb_reported_length(ptr noundef %52)
  store i32 %53, ptr %9, align 4
  br label %58

54:                                               ; preds = %39
  %55 = load i32, ptr %9, align 4
  %56 = load i32, ptr %17, align 4
  %57 = add i32 %55, %56
  store i32 %57, ptr %9, align 4
  br label %58

58:                                               ; preds = %54, %51
  br label %62

59:                                               ; preds = %34, %6
  %60 = load ptr, ptr %8, align 8
  %61 = call i32 @tvb_reported_length(ptr noundef %60)
  store i32 %61, ptr %9, align 4
  br label %62

62:                                               ; preds = %59, %58
  %63 = load i32, ptr %9, align 4
  ret i32 %63
}