; Function Attrs: nounwind uwtable
define internal i32 @dissect_spnego_InnerContextToken(i1 zeroext %0, ptr noundef %1, i32 noundef %2, ptr noundef readonly captures(none) %3, ptr noundef %4, i32 %5) #0 {
  %7 = load ptr, ptr @MechType_oid, align 8
  %8 = tail call ptr @gssapi_lookup_oid_str(ptr noundef %7) #6
  %9 = load i32, ptr @hf_spnego_wraptoken, align 4
  %10 = tail call ptr @proto_tree_add_item(ptr noundef %4, i32 noundef %9, ptr noundef %1, i32 noundef %2, i32 noundef -1, i32 noundef 0) #6
  %11 = load i32, ptr @ett_spnego_wraptoken, align 4
  %12 = tail call ptr @proto_item_add_subtree(ptr noundef %10, i32 noundef %11) #6
  %13 = tail call ptr @tvb_new_subset_remaining(ptr noundef %1, i32 noundef %2) #6
  %.not = icmp eq ptr %8, null
  br i1 %.not, label %26, label %14

14:                                               ; preds = %6
  %15 = getelementptr inbounds nuw i8, ptr %8, i64 24
  %16 = load ptr, ptr %15, align 8
  %.not20 = icmp eq ptr %16, null
  br i1 %.not20, label %26, label %17

17:                                               ; preds = %14
  %18 = getelementptr inbounds nuw i8, ptr %3, i64 16
  %19 = load ptr, ptr %18, align 8
  %20 = tail call i32 @call_dissector(ptr noundef nonnull %16, ptr noundef %13, ptr noundef %19, ptr noundef %12) #6
  %21 = icmp eq i32 %20, 0
  br i1 %21, label %22, label %24

22:                                               ; preds = %17
  %23 = tail call i32 @tvb_reported_length(ptr noundef %1) #6
  br label %28

24:                                               ; preds = %17
  %25 = add i32 %20, %2
  br label %28

26:                                               ; preds = %14, %6
  %27 = tail call i32 @tvb_reported_length(ptr noundef %1) #6
  br label %28

28:                                               ; preds = %22, %24, %26
  %.0 = phi i32 [ %23, %22 ], [ %25, %24 ], [ %27, %26 ]
  ret i32 %.0
}